; Function Attrs: nounwind uwtable
define internal noundef i32 @math_max(ptr noundef %0) #0 {
  %2 = tail call i32 @lua_gettop(ptr noundef %0) #6
  %3 = icmp sgt i32 %2, 0
  br i1 %3, label %5, label %.thread, !prof !11

.thread:                                          ; preds = %1
  %4 = tail call i32 @luaL_argerror(ptr noundef %0, i32 noundef 1, ptr noundef nonnull @.str.28) #6
  br label %._crit_edge

5:                                                ; preds = %1
  %.not13 = icmp eq i32 %2, 1
  br i1 %.not13, label %._crit_edge, label %.lr.ph

.lr.ph:                                           ; preds = %5, %.lr.ph
  %.015 = phi i32 [ %7, %.lr.ph ], [ 2, %5 ]
  %.01114 = phi i32 [ %spec.select, %.lr.ph ], [ 1, %5 ]
  %6 = tail call i32 @lua_compare(ptr noundef %0, i32 noundef %.01114, i32 noundef %.015, i32 noundef 1) #6
  %.not12 = icmp eq i32 %6, 0
  %spec.select = select i1 %.not12, i32 %.01114, i32 %.015
  %7 = add nuw i32 %.015, 1
  %exitcond.not = icmp eq i32 %.015, %2
  br i1 %exitcond.not, label %._crit_edge, label %.lr.ph

._crit_edge:                                      ; preds = %.lr.ph, %.thread, %5
  %.011.lcssa = phi i32 [ 1, %5 ], [ 1, %.thread ], [ %spec.select, %.lr.ph ]
  tail call void @lua_pushvalue(ptr noundef %0, i32 noundef %.011.lcssa) #6
  ret i32 1
}